target datalayout = "e-m:e-p270:32:32-p271:32:32-p272:64:64-i64:64-i128:128-f80:128-n8:16:32:64-S128"
target triple = "x86_64-pc-linux-gnu"

%struct.PLpgSQL_execstate = type { ptr, ptr, ptr, i64, i8, i32, i32, i8, i8, i8, i8, ptr, ptr, ptr, ptr, ptr, ptr, ptr, i32, i32, ptr, ptr, ptr, ptr, ptr, ptr, ptr, ptr, ptr, ptr, i64, ptr, ptr, ptr, ptr, ptr }
%struct.PLpgSQL_var = type { i32, i32, ptr, i32, i8, i8, ptr, ptr, ptr, i32, i32, i64, i8, i8, i32 }
%struct.ExprContext = type { i32, ptr, ptr, ptr, ptr, ptr, ptr, ptr, ptr, ptr, i64, i8, i64, i8, ptr, ptr, ptr, ptr }
%struct.PLpgSQL_expr = type { ptr, i32, ptr, ptr, i32, i8, ptr, ptr, ptr, i32, i32, i8, i32, ptr, ptr, ptr, i32, ptr, i8, i32 }
%struct.StringInfoData = type { ptr, i32, i32, i32 }

@CurrentMemoryContext = external global ptr, align 8
@.str.55 = private unnamed_addr constant [1 x i8] zeroinitializer, align 1
@.str.124 = private unnamed_addr constant [8 x i8] c"%s%s = \00", align 1
@.str.125 = private unnamed_addr constant [3 x i8] c", \00", align 1
@.str.126 = private unnamed_addr constant [5 x i8] c"NULL\00", align 1

; Function Attrs: nounwind uwtable
define internal ptr @convert_value_to_string(ptr noundef %0, i64 noundef %1, i32 noundef %2) #0 {
  %4 = alloca ptr, align 8
  %5 = alloca i64, align 8
  %6 = alloca i32, align 4
  %7 = alloca ptr, align 8
  %8 = alloca ptr, align 8
  %9 = alloca i32, align 4
  %10 = alloca i8, align 1
  store ptr %0, ptr %4, align 8
  store i64 %1, ptr %5, align 8
  store i32 %2, ptr %6, align 4
  call void @llvm.lifetime.start.p0(i64 8, ptr %7) #12
  call void @llvm.lifetime.start.p0(i64 8, ptr %8) #12
  call void @llvm.lifetime.start.p0(i64 4, ptr %9) #12
  call void @llvm.lifetime.start.p0(i64 1, ptr %10) #12
  %11 = load ptr, ptr %4, align 8
  %12 = getelementptr inbounds nuw %struct.PLpgSQL_execstate, ptr %11, i32 0, i32 31
  %13 = load ptr, ptr %12, align 8
  %14 = getelementptr inbounds nuw %struct.ExprContext, ptr %13, i32 0, i32 5
  %15 = load ptr, ptr %14, align 8
  %16 = call ptr @MemoryContextSwitchTo(ptr noundef %15)
  store ptr %16, ptr %8, align 8
  %17 = load i32, ptr %6, align 4
  call void @getTypeOutputInfo(i32 noundef %17, ptr noundef %9, ptr noundef %10)
  %18 = load i32, ptr %9, align 4
  %19 = load i64, ptr %5, align 8
  %20 = call ptr @OidOutputFunctionCall(i32 noundef %18, i64 noundef %19)
  store ptr %20, ptr %7, align 8
  %21 = load ptr, ptr %8, align 8
  %22 = call ptr @MemoryContextSwitchTo(ptr noundef %21)
  %23 = load ptr, ptr %7, align 8
  call void @llvm.lifetime.end.p0(i64 1, ptr %10) #12
  call void @llvm.lifetime.end.p0(i64 4, ptr %9) #12
  call void @llvm.lifetime.end.p0(i64 8, ptr %8) #12
  call void @llvm.lifetime.end.p0(i64 8, ptr %7) #12
  ret ptr %23
}

; Function Attrs: inlinehint nounwind uwtable
define internal ptr @MemoryContextSwitchTo(ptr noundef %0) #2 {
  %2 = alloca ptr, align 8
  %3 = alloca ptr, align 8
  store ptr %0, ptr %2, align 8
  call void @llvm.lifetime.start.p0(i64 8, ptr %3) #12
  %4 = load ptr, ptr @CurrentMemoryContext, align 8
  store ptr %4, ptr %3, align 8
  %5 = load ptr, ptr %2, align 8
  store ptr %5, ptr @CurrentMemoryContext, align 8
  %6 = load ptr, ptr %3, align 8
  call void @llvm.lifetime.end.p0(i64 8, ptr %3) #12
  ret ptr %6
}

; Function Attrs: nounwind uwtable
define internal ptr @format_expr_params(ptr noundef %0, ptr noundef %1) #0 {
  %3 = alloca ptr, align 8
  %4 = alloca ptr, align 8
  %5 = alloca ptr, align 8
  %6 = alloca i32, align 4
  %7 = alloca i32, align 4
  %8 = alloca %struct.StringInfoData, align 8
  %9 = alloca ptr, align 8
  %10 = alloca i32, align 4
  %11 = alloca i64, align 8
  %12 = alloca i32, align 4
  %13 = alloca i8, align 1
  %14 = alloca i32, align 4
  %15 = alloca ptr, align 8
  store ptr %0, ptr %4, align 8
  store ptr %1, ptr %5, align 8
  call void @llvm.lifetime.start.p0(i64 4, ptr %6) #12
  call void @llvm.lifetime.start.p0(i64 4, ptr %7) #12
  call void @llvm.lifetime.start.p0(i64 24, ptr %8) #12
  call void @llvm.lifetime.start.p0(i64 8, ptr %9) #12
  %16 = load ptr, ptr %5, align 8
  %17 = getelementptr inbounds nuw %struct.PLpgSQL_expr, ptr %16, i32 0, i32 7
  %18 = load ptr, ptr %17, align 8
  %19 = icmp ne ptr %18, null
  br i1 %19, label %21, label %20

20:                                               ; preds = %2
  store ptr null, ptr %3, align 8
  store i32 1, ptr %10, align 4
  br label %67

21:                                               ; preds = %2
  %22 = load ptr, ptr %4, align 8
  %23 = getelementptr inbounds nuw %struct.PLpgSQL_execstate, ptr %22, i32 0, i32 31
  %24 = load ptr, ptr %23, align 8
  %25 = getelementptr inbounds nuw %struct.ExprContext, ptr %24, i32 0, i32 5
  %26 = load ptr, ptr %25, align 8
  %27 = call ptr @MemoryContextSwitchTo(ptr noundef %26)
  store ptr %27, ptr %9, align 8
  call void @initStringInfo(ptr noundef %8)
  store i32 0, ptr %6, align 4
  store i32 -1, ptr %7, align 4
  br label %28

28:                                               ; preds = %59, %21
  %29 = load ptr, ptr %5, align 8
  %30 = getelementptr inbounds nuw %struct.PLpgSQL_expr, ptr %29, i32 0, i32 7
  %31 = load ptr, ptr %30, align 8
  %32 = load i32, ptr %7, align 4
  %33 = call i32 @bms_next_member(ptr noundef %31, i32 noundef %32)
  store i32 %33, ptr %7, align 4
  %34 = icmp sge i32 %33, 0
  br i1 %34, label %35, label %62

35:                                               ; preds = %28
  call void @llvm.lifetime.start.p0(i64 8, ptr %11) #12
  call void @llvm.lifetime.start.p0(i64 4, ptr %12) #12
  call void @llvm.lifetime.start.p0(i64 1, ptr %13) #12
  call void @llvm.lifetime.start.p0(i64 4, ptr %14) #12
  call void @llvm.lifetime.start.p0(i64 8, ptr %15) #12
  %36 = load ptr, ptr %4, align 8
  %37 = getelementptr inbounds nuw %struct.PLpgSQL_execstate, ptr %36, i32 0, i32 20
  %38 = load ptr, ptr %37, align 8
  %39 = load i32, ptr %7, align 4
  %40 = sext i32 %39 to i64
  %41 = getelementptr inbounds ptr, ptr %38, i64 %40
  %42 = load ptr, ptr %41, align 8
  store ptr %42, ptr %15, align 8
  %43 = load ptr, ptr %4, align 8
  %44 = load ptr, ptr %15, align 8
  call void @exec_eval_datum(ptr noundef %43, ptr noundef %44, ptr noundef %12, ptr noundef %14, ptr noundef %11, ptr noundef %13)
  %45 = load i32, ptr %6, align 4
  %46 = icmp sgt i32 %45, 0
  %47 = select i1 %46, ptr @.str.125, ptr @.str.55
  %48 = load ptr, ptr %15, align 8
  %49 = getelementptr inbounds nuw %struct.PLpgSQL_var, ptr %48, i32 0, i32 2
  %50 = load ptr, ptr %49, align 8
  call void (ptr, ptr, ...) @appendStringInfo(ptr noundef %8, ptr noundef @.str.124, ptr noundef %47, ptr noundef %50)
  %51 = load i8, ptr %13, align 1, !range !3, !noundef !4
  %52 = trunc i8 %51 to i1
  br i1 %52, label %53, label %54

53:                                               ; preds = %35
  call void @appendStringInfoString(ptr noundef %8, ptr noundef @.str.126)
  br label %59

54:                                               ; preds = %35
  %55 = load ptr, ptr %4, align 8
  %56 = load i64, ptr %11, align 8
  %57 = load i32, ptr %12, align 4
  %58 = call ptr @convert_value_to_string(ptr noundef %55, i64 noundef %56, i32 noundef %57)
  call void @appendStringInfoStringQuoted(ptr noundef %8, ptr noundef %58, i32 noundef -1)
  br label %59

59:                                               ; preds = %54, %53
  %60 = load i32, ptr %6, align 4
  %61 = add i32 %60, 1
  store i32 %61, ptr %6, align 4
  call void @llvm.lifetime.end.p0(i64 8, ptr %15) #12
  call void @llvm.lifetime.end.p0(i64 4, ptr %14) #12
  call void @llvm.lifetime.end.p0(i64 1, ptr %13) #12
  call void @llvm.lifetime.end.p0(i64 4, ptr %12) #12
  call void @llvm.lifetime.end.p0(i64 8, ptr %11) #12
  br label %28, !llvm.loop !28

62:                                               ; preds = %28
  %63 = load ptr, ptr %9, align 8
  %64 = call ptr @MemoryContextSwitchTo(ptr noundef %63)
  %65 = getelementptr inbounds nuw %struct.StringInfoData, ptr %8, i32 0, i32 0
  %66 = load ptr, ptr %65, align 8
  store ptr %66, ptr %3, align 8
  store i32 1, ptr %10, align 4
  br label %67

67:                                               ; preds = %62, %20
  call void @llvm.lifetime.end.p0(i64 8, ptr %9) #12
  call void @llvm.lifetime.end.p0(i64 24, ptr %8) #12
  call void @llvm.lifetime.end.p0(i64 4, ptr %7) #12
  call void @llvm.lifetime.end.p0(i64 4, ptr %6) #12
  %68 = load ptr, ptr %3, align 8
  ret ptr %68
}