; Function Attrs: nounwind uwtable
define internal fastcc ptr @format_expr_params(ptr noundef nonnull readonly captures(none) %0, ptr noundef readonly captures(none) %1) unnamed_addr #0 {
  %3 = alloca i32, align 4
  %4 = alloca i8, align 1
  %5 = alloca %struct.StringInfoData, align 8
  %6 = alloca i64, align 8
  %7 = alloca i32, align 4
  %8 = alloca i8, align 1
  %9 = alloca i32, align 4
  call void @llvm.lifetime.start.p0(i64 24, ptr nonnull %5) #12
  %10 = getelementptr inbounds nuw i8, ptr %1, i64 48
  %11 = load ptr, ptr %10, align 8
  %.not = icmp eq ptr %11, null
  br i1 %.not, label %48, label %12

12:                                               ; preds = %2
  %13 = getelementptr inbounds nuw i8, ptr %0, i64 200
  %14 = load ptr, ptr %13, align 8
  %15 = getelementptr inbounds nuw i8, ptr %14, i64 40
  %16 = load ptr, ptr %15, align 8
  %17 = load ptr, ptr @CurrentMemoryContext, align 8
  store ptr %16, ptr @CurrentMemoryContext, align 8
  call void @initStringInfo(ptr noundef nonnull %5) #12
  %18 = load ptr, ptr %10, align 8
  %19 = call i32 @bms_next_member(ptr noundef %18, i32 noundef -1) #12
  %20 = icmp sgt i32 %19, -1
  br i1 %20, label %.lr.ph, label %._crit_edge

.lr.ph:                                           ; preds = %12
  %21 = getelementptr inbounds nuw i8, ptr %0, i64 112
  br label %22

22:                                               ; preds = %.lr.ph, %42
  %23 = phi i32 [ %19, %.lr.ph ], [ %45, %42 ]
  %.01316 = phi i32 [ 0, %.lr.ph ], [ %43, %42 ]
  call void @llvm.lifetime.start.p0(i64 8, ptr nonnull %6) #12
  call void @llvm.lifetime.start.p0(i64 4, ptr nonnull %7) #12
  call void @llvm.lifetime.start.p0(i64 1, ptr nonnull %8) #12
  call void @llvm.lifetime.start.p0(i64 4, ptr nonnull %9) #12
  %24 = load ptr, ptr %21, align 8
  %25 = zext nneg i32 %23 to i64
  %26 = getelementptr inbounds nuw ptr, ptr %24, i64 %25
  %27 = load ptr, ptr %26, align 8
  call void @exec_eval_datum(ptr noundef nonnull %0, ptr noundef %27, ptr noundef nonnull %7, ptr noundef nonnull %9, ptr noundef nonnull %6, ptr noundef nonnull %8)
  %28 = icmp sgt i32 %.01316, 0
  %29 = select i1 %28, ptr @.str.125, ptr @.str.55
  %30 = getelementptr inbounds nuw i8, ptr %27, i64 8
  %31 = load ptr, ptr %30, align 8
  call void (ptr, ptr, ...) @appendStringInfo(ptr noundef nonnull %5, ptr noundef nonnull @.str.124, ptr noundef nonnull %29, ptr noundef %31) #12
  %32 = load i8, ptr %8, align 1, !range !3, !noundef !4
  %33 = trunc nuw i8 %32 to i1
  br i1 %33, label %34, label %35

34:                                               ; preds = %22
  call void @appendStringInfoString(ptr noundef nonnull %5, ptr noundef nonnull @.str.126) #12
  br label %42

35:                                               ; preds = %22
  %36 = load i64, ptr %6, align 8
  %37 = load i32, ptr %7, align 4
  %.val = load ptr, ptr %13, align 8
  %38 = getelementptr i8, ptr %.val, i64 40
  %.val.val = load ptr, ptr %38, align 8
  call void @llvm.lifetime.start.p0(i64 4, ptr nonnull %3) #12
  call void @llvm.lifetime.start.p0(i64 1, ptr nonnull %4) #12
  %39 = load ptr, ptr @CurrentMemoryContext, align 8
  store ptr %.val.val, ptr @CurrentMemoryContext, align 8
  call void @getTypeOutputInfo(i32 noundef %37, ptr noundef nonnull %3, ptr noundef nonnull %4) #12
  %40 = load i32, ptr %3, align 4
  %41 = call ptr @OidOutputFunctionCall(i32 noundef %40, i64 noundef %36) #12
  store ptr %39, ptr @CurrentMemoryContext, align 8
  call void @llvm.lifetime.end.p0(i64 1, ptr nonnull %4) #12
  call void @llvm.lifetime.end.p0(i64 4, ptr nonnull %3) #12
  call void @appendStringInfoStringQuoted(ptr noundef nonnull %5, ptr noundef %41, i32 noundef -1) #12
  br label %42

42:                                               ; preds = %35, %34
  %43 = add i32 %.01316, 1
  call void @llvm.lifetime.end.p0(i64 4, ptr nonnull %9) #12
  call void @llvm.lifetime.end.p0(i64 1, ptr nonnull %8) #12
  call void @llvm.lifetime.end.p0(i64 4, ptr nonnull %7) #12
  call void @llvm.lifetime.end.p0(i64 8, ptr nonnull %6) #12
  %44 = load ptr, ptr %10, align 8
  %45 = call i32 @bms_next_member(ptr noundef %44, i32 noundef %23) #12
  %46 = icmp sgt i32 %45, -1
  br i1 %46, label %22, label %._crit_edge, !llvm.loop !23

._crit_edge:                                      ; preds = %42, %12
  store ptr %17, ptr @CurrentMemoryContext, align 8
  %47 = load ptr, ptr %5, align 8
  br label %48

48:                                               ; preds = %2, %._crit_edge
  %.0 = phi ptr [ %47, %._crit_edge ], [ null, %2 ]
  call void @llvm.lifetime.end.p0(i64 24, ptr nonnull %5) #12
  ret ptr %.0
}